(lp0
V\u978d\u5c71
p1
aV\u5b89\u9633
p2
aV\u5b89\u987a
p3
aV\u5b89\u5e86
p4
aV\u5b89\u5eb7
p5
aV\u5317\u4eac
p6
aV\u5305\u5934
p7
aV\u868c\u57e0
p8
aV\u5b9d\u9e21
p9
aV\u672c\u6eaa
p10
aV\u767d\u5c71
p11
aV\u767d\u57ce
p12
aV\u4fdd\u5b9a
p13
aV\u5317\u6d77
p14
aV\u4eb3\u5dde
p15
aV\u5df4\u4e2d
p16
aV\u767d\u94f6
p17
aV\u5b9d\u5e94\u53bf
p18
aV\u6ee8\u5dde
p19
aV\u4fdd\u5c71
p20
aV\u6bd5\u8282
p21
aV\u5b9d\u5b89
p22
aV\u535a\u7f57
p23
aV\u91cd\u5e86
p24
aV\u957f\u6c99
p25
aV\u6210\u90fd
p26
aV\u957f\u6625
p27
aV\u5e38\u5fb7
p28
aV\u627f\u5fb7
p29
aV\u5e38\u5dde
p30
aV\u90f4\u5dde
p31
aV\u957f\u6cbb
p32
aV\u8d64\u5cf0
p33
aV\u5e38\u719f
p34
aV\u8d64\u6c34
p35
aV\u6f6e\u5dde
p36
aV\u6c60\u5dde
p37
aV\u6ca7\u5dde
p38
aV\u5de2\u6e56
p39
aV\u6ec1\u5dde
p40
aV\u4ece\u5316
p41
aV\u671d\u9633
p42
aV\u957f\u4e50
p43
aV\u957f\u5bff\u533a
p44
aV\u6df3\u5b89
p45
aV\u957f\u6c99\u53bf
p46
aV\u695a\u96c4
p47
aV\u6148\u6eaa
p48
aV\u957f\u5b89
p49
aV\u5e38\u5e73
p50
aV\u6a1f\u6728\u5934
p51
aV\u660c\u5409
p52
aV\u5927\u540c
p53
aV\u4e1c\u8425
p54
aV\u5927\u8fde
p55
aV\u5927\u5e86
p56
aV\u4e1c\u839e
p57
aV\u4e1c\u9633
p58
aV\u5927\u7406
p59
aV\u4e39\u4e1c
p60
aV\u6566\u5316
p61
aV\u5fb7\u60e0
p62
aV\u4e39\u9633
p63
aV\u767b\u5c01
p64
aV\u5b9a\u5dde
p65
aV\u90fd\u5300
p66
aV\u6566\u714c
p67
aV\u5fb7\u5dde
p68
aV\u5fb7\u9633
p69
aV\u4e1c\u6e2f
p70
aV\u5927\u77f3\u6865
p71
aV\u706f\u5854
p72
aV\u5927\u5174\u5b89\u5cad
p73
aV\u5927\u5b89
p74
aV\u8fbe\u5dde
p75
aV\u90fd\u6c5f\u5830
p76
aV\u5b9a\u897f
p77
aV\u4e1c\u53f0
p78
aV\u5927\u4e30
p79
aV\u9093\u5dde
p80
aV\u5927\u6717
p81
aV\u5927\u5cad\u5c71
p82
aV\u9102\u5c14\u591a\u65af
p83
aV\u5ce8\u7709\u5c71
p84
aV\u9102\u5dde
p85
aV\u6069\u65bd
p86
aV\u4e8c\u8fde\u6d69\u7279
p87
aV\u6069\u5e73
p88
aV\u798f\u5dde
p89
aV\u4f5b\u5c71
p90
aV\u961c\u9633
p91
aV\u5bcc\u9633
p92
aV\u629a\u987a
p93
aV\u6daa\u9675
p94
aV\u629a\u5dde
p95
aV\u961c\u65b0
p96
aV\u51e4\u57ce
p97
aV\u4e30\u57ce
p98
aV\u798f\u6cc9
p99
aV\u9632\u57ce\u6e2f
p100
aV\u5949\u5316
p101
aV\u51e4\u5c97
p102
aV\u5e7f\u5dde
p103
aV\u8d35\u9633
p104
aV\u6842\u6797
p105
aV\u8d63\u5dde
p106
aV\u76d6\u5dde
p107
aV\u516c\u4e3b\u5cad
p108
aV\u85c1\u57ce
p109
aV\u7518\u5357
p110
aV\u9ad8\u5b89
p111
aV\u9ad8\u90ae
p112
aV\u9ad8\u6df3\u53bf
p113
aV\u56fa\u539f
p114
aV\u4e2a\u65e7
p115
aV\u8d35\u6e2f
p116
aV\u5de9\u4e49
p117
aV\u9ad8\u660e
p118
aV\u676d\u5dde
p119
aV\u54c8\u5c14\u6ee8
p120
aV\u6d77\u53e3
p121
aV\u5408\u80a5
p122
aV\u547c\u548c\u6d69\u7279
p123
aV\u846b\u82a6\u5c9b
p124
aV\u6dee\u5b89
p125
aV\u60e0\u5dde
p126
aV\u6e56\u5dde
p127
aV\u8861\u9633
p128
aV\u6000\u5316
p129
aV\u6d77\u5b81
p130
aV\u548c\u7530
p131
aV\u54c8\u5bc6
p132
aV\u6c49\u4e2d
p133
aV\u6d77\u57ce
p134
aV\u9ec4\u77f3
p135
aV\u90af\u90f8
p136
aV\u8861\u6c34
p137
aV\u6cb3\u6e90
p138
aV\u9ec4\u5c71
p139
aV\u6dee\u5317
p140
aV\u6dee\u5357
p141
aV\u83cf\u6cfd
p142
aV\u9ed1\u6cb3
p143
aV\u82b1\u90fd
p144
aV\u9e64\u58c1
p145
aV\u9e64\u5c97
p146
aV\u6866\u7538
p147
aV\u73f2\u6625
p148
aV\u548c\u9f99
p149
aV\u534e\u9634
p150
aV\u97e9\u57ce
p151
aV\u6cb3\u95f4
p152
aV\u9ec4\u5188
p153
aV\u5408\u5ddd\u533a
p154
aV\u6d77\u95e8
p155
aV\u6d77\u5b89\u53bf
p156
aV\u6d77\u62c9\u5c14
p157
aV\u6cb3\u6c60
p158
aV\u60e0\u4e1c
p159
aV\u864e\u95e8
p160
aV\u539a\u8857
p161
aV\u6d4e\u5357
p162
aV\u91d1\u534e
p163
aV\u5609\u5174
p164
aV\u6d4e\u5b81
p165
aV\u9526\u5dde
p166
aV\u5409\u6797
p167
aV\u6c5f\u95e8
p168
aV\u5efa\u5fb7
p169
aV\u664b\u57ce
p170
aV\u664b\u4e2d
p171
aV\u96c6\u5b89
p172
aV\u86df\u6cb3
p173
aV\u5409\u5b89
p174
aV\u666f\u5fb7\u9547
p175
aV\u4e5d\u6c5f
p176
aV\u8346\u5dde
p177
aV\u8346\u95e8
p178
aV\u7126\u4f5c
p179
aV\u4f73\u6728\u65af
p180
aV\u63ed\u9633
p181
aV\u9e21\u897f
p182
aV\u6c5f\u9634
p183
aV\u9756\u6c5f
p184
aV\u6c5f\u5b81\u533a
p185
aV\u6d4e\u6e90
p186
aV\u4e5d\u53f0
p187
aV\u664b\u5dde
p188
aV\u5180\u5dde
p189
aV\u664b\u6c5f
p190
aV\u5609\u5cea\u5173
p191
aV\u9152\u6cc9
p192
aV\u91d1\u660c
p193
aV\u4e95\u5188\u5c71
p194
aV\u754c\u9996
p195
aV\u6c5f\u6d25\u533a
p196
aV\u6c5f\u90fd
p197
aV\u91d1\u575b
p198
aV\u59dc\u5830
p199
aV\u53e5\u5bb9
p200
aV\u5efa\u6e56\u53bf
p201
aV\u80f6\u5357
p202
aV\u5373\u58a8
p203
aV\u666f\u6d2a
p204
aV\u6c5f\u5c71
p205
aV\u6606\u660e
p206
aV\u514b\u62c9\u739b\u4f9d
p207
aV\u5f00\u5c01
p208
aV\u5580\u4ec0
p209
aV\u6606\u5c71
p210
aV\u51ef\u91cc
p211
aV\u5f00\u5e73
p212
aV\u5e93\u5c14\u52d2
p213
aV\u5170\u5dde
p214
aV\u62c9\u8428
p215
aV\u4e34\u6c7e
p216
aV\u4e34\u6c82
p217
aV\u83b1\u829c
p218
aV\u8fde\u4e91\u6e2f
p219
aV\u6d1b\u9633
p220
aV\u5eca\u574a
p221
aV\u67f3\u5dde
p222
aV\u9f99\u5ca9
p223
aV\u6d4f\u9633
p224
aV\u4e3d\u6c5f
p225
aV\u6cf8\u5dde
p226
aV\u4e50\u5c71
p227
aV\u5415\u6881
p228
aV\u4e50\u9675
p229
aV\u8fbd\u9633
p230
aV\u8fbd\u6e90
p231
aV\u4e34\u6c5f
p232
aV\u516d\u76d8\u6c34
p233
aV\u516d\u5b89
p234
aV\u804a\u57ce
p235
aV\u6f2f\u6cb3
p236
aV\u9f99\u4e95
p237
aV\u9e7f\u6cc9
p238
aV\u9647\u5357
p239
aV\u4e34\u590f
p240
aV\u4e50\u5e73
p241
aV\u91b4\u9675
p242
aV\u8012\u9633
p243
aV\u51b7\u6c34\u6c5f
p244
aV\u6ea7\u9633
p245
aV\u6ea7\u6c34\u53bf
p246
aV\u9f99\u53e3
p247
aV\u83b1\u9633
p248
aV\u4e34\u6ca7
p249
aV\u7075\u5b9d
p250
aV\u9f99\u534e
p251
aV\u9f99\u95e8
p252
aV\u4e34\u5b89
p253
aV\u4e3d\u6c34
p254
aV\u4e34\u6d77
p255
aV\u4e50\u6e05
p256
aV\u5170\u6eaa
p257
aV\u9f99\u6cc9
p258
aV\u9f99\u5c97
p259
aV\u9a6c\u978d\u5c71
p260
aV\u7ef5\u9633
p261
aV\u6885\u6cb3\u53e3
p262
aV\u7261\u4e39\u6c5f
p263
aV\u8302\u540d
p264
aV\u6885\u5dde
p265
aV\u7709\u5c71
p266
aV\u660e\u5149
p267
aV\u8499\u81ea
p268
aV\u5b5f\u5dde
p269
aV\u5357\u660c
p270
aV\u5357\u4eac
p271
aV\u5357\u5b81
p272
aV\u5b81\u6ce2
p273
aV\u5357\u901a
p274
aV\u5357\u5145
p275
aV\u5b81\u5fb7
p276
aV\u5357\u9633
p277
aV\u5185\u6c5f
p278
aV\u5357\u5bab
p279
aV\u5357\u5e73
p280
aV\u5357\u5b89
p281
aV\u5357\u5eb7
p282
aV\u5b81\u56fd
p283
aV\u5357\u5ddd\u533a
p284
aV\u5357\u6d77
p285
aV\u76d8\u9526
p286
aV\u6500\u679d\u82b1
p287
aV\u666e\u6d31
p288
aV\u6fee\u9633
p289
aV\u756a\u79ba
p290
aV\u840d\u4e61
p291
aV\u5e73\u9876\u5c71
p292
aV\u666e\u5170\u5e97
p293
aV\u78d0\u77f3
p294
aV\u8386\u7530
p295
aV\u5e73\u51c9
p296
aV\u9131\u9633
p297
aV\u90b3\u5dde
p298
aV\u6c9b\u53bf
p299
aV\u5e73\u5ea6
p300
aV\u84ec\u83b1
p301
aV\u9752\u5c9b
p302
aV\u9f50\u9f50\u54c8\u5c14
p303
aV\u79e6\u7687\u5c9b
p304
aV\u6cc9\u5dde
p305
aV\u8862\u5dde
p306
aV\u66f2\u9756
p307
aV\u66f2\u961c
p308
aV\u4e03\u53f0\u6cb3
p309
aV\u8fc1\u5b89
p310
aV\u6e05\u8fdc
p311
aV\u5168\u56fd
p312
aV\u5e86\u9633
p313
aV\u6f5c\u6c5f
p314
aV\u542f\u4e1c
p315
aV\u9752\u5dde
p316
aV\u9752\u94dc\u5ce1
p317
aV\u94a6\u5dde
p318
aV\u6c81\u9633
p319
aV\u745e\u4e3d
p320
aV\u6c5d\u5dde
p321
aV\u4ec1\u6000
p322
aV\u65e5\u7167
p323
aV\u4efb\u4e18
p324
aV\u745e\u91d1
p325
aV\u5982\u768b
p326
aV\u8363\u6210
p327
aV\u745e\u5b89
p328
aV\u4e0a\u6d77
p329
aV\u6df1\u5733
p330
aV\u6c88\u9633
p331
aV\u7ecd\u5174
p332
aV\u82cf\u5dde
p333
aV\u4e09\u4e9a
p334
aV\u77f3\u5bb6\u5e84
p335
aV\u97f6\u5c71
p336
aV\u6714\u5dde
p337
aV\u5bff\u5149
p338
aV\u4e0a\u9976
p339
aV\u5341\u5830
p340
aV\u5546\u4e18
p341
aV\u7ee5\u82ac\u6cb3
p342
aV\u4e09\u6cb3
p343
aV\u6c55\u5934
p344
aV\u97f6\u5173
p345
aV\u5bbf\u8fc1
p346
aV\u6c55\u5c3e
p347
aV\u987a\u5fb7
p348
aV\u56db\u5e73
p349
aV\u4e09\u95e8\u5ce1
p350
aV\u53cc\u9e2d\u5c71
p351
aV\u7ee5\u5316
p352
aV\u677e\u539f
p353
aV\u8212\u5170
p354
aV\u53cc\u8fbd
p355
aV\u9042\u5b81
p356
aV\u5546\u6d1b
p357
aV\u6c99\u6cb3
p358
aV\u6df1\u5dde
p359
aV\u77f3\u72ee
p360
aV\u4e09\u660e
p361
aV\u5bbf\u5dde
p362
aV\u968f\u5dde
p363
aV\u6cad\u9633\u53bf
p364
aV\u5c04\u9633\u53bf
p365
aV\u77f3\u5634\u5c71
p366
aV\u77f3\u9f99
p367
aV\u56db\u4f1a
p368
aV\u4e0a\u865e
p369
aV\u5d4a\u5dde
p370
aV\u4e09\u6c34
p371
aV\u77f3\u6cb3\u5b50
p372
aV\u90b5\u9633
p373
aV\u5929\u6d25
p374
aV\u592a\u539f
p375
aV\u53f0\u5dde
p376
aV\u6cf0\u5b89
p377
aV\u6cf0\u5dde
p378
aV\u5510\u5c71
p379
aV\u6850\u4e61
p380
aV\u5410\u9c81\u756a
p381
aV\u6ed5\u5dde
p382
aV\u94c1\u5cad
p383
aV\u901a\u5316
p384
aV\u5929\u6c34
p385
aV\u94dc\u9675
p386
aV\u5858\u6cbd\u533a
p387
aV\u53f0\u5317
p388
aV\u592a\u4ed3
p389
aV\u6d2e\u5357
p390
aV\u56fe\u4eec
p391
aV\u94dc\u5ddd
p392
aV\u6850\u57ce
p393
aV\u5929\u957f
p394
aV\u5929\u95e8
p395
aV\u6850\u5e90
p396
aV\u901a\u5dde
p397
aV\u6cf0\u5174
p398
aV\u94dc\u5c71\u53bf
p399
aV\u901a\u8fbd\u5e02
p400
aV\u94dc\u4ec1
p401
aV\u6b66\u6c49
p402
aV\u4e4c\u9c81\u6728\u9f50
p403
aV\u6e29\u5dde
p404
aV\u6f4d\u574a
p405
aV\u5a01\u6d77
p406
aV\u65e0\u9521
p407
aV\u829c\u6e56
p408
aV\u6587\u767b
p409
aV\u6e2d\u5357
p410
aV\u6b66\u5937\u5c71
p411
aV\u4e07\u5dde
p412
aV\u5434\u6c5f
p413
aV\u74e6\u623f\u5e97
p414
aV\u6b66\u5b89
p415
aV\u6b66\u5a01
p416
aV\u5a7a\u6e90
p417
aV\u4e4c\u6d77
p418
aV\u4e4c\u5170\u6d69\u7279
p419
aV\u5434\u5fe0
p420
aV\u6587\u5c71
p421
aV\u68a7\u5dde
p422
aV\u6e29\u5cad
p423
aV\u897f\u5b89
p424
aV\u897f\u5b81
p425
aV\u5f90\u5dde
p426
aV\u8944\u9633
p427
aV\u65b0\u4e61
p428
aV\u53a6\u95e8
p429
aV\u6e58\u6f6d
p430
aV\u54b8\u9633
p431
aV\u65b0\u6c11
p432
aV\u8365\u9633
p433
aV\u65b0\u90d1
p434
aV\u5ba3\u57ce
p435
aV\u4fe1\u9633
p436
aV\u8bb8\u660c
p437
aV\u65b0\u4f59
p438
aV\u5174\u57ce
p439
aV\u897f\u660c
p440
aV\u5174\u5e73
p441
aV\u90a2\u53f0
p442
aV\u8f9b\u96c6
p443
aV\u65b0\u4e50
p444
aV\u4fe1\u4e30
p445
aV\u4ed9\u6843
p446
aV\u5b5d\u611f
p447
aV\u54b8\u5b81
p448
aV\u8427\u5c71
p449
aV\u6e58\u4e61
p450
aV\u5174\u5316
p451
aV\u65b0\u6cf0
p452
aV\u5ffb\u5dde
p453
aV\u9521\u6797\u6d69\u7279
p454
aV\u9999\u683c\u91cc\u62c9
p455
aV\u65b0\u5bc6
p456
aV\u661f\u6c99
p457
aV\u94f6\u5ddd
p458
aV\u5cb3\u9633
p459
aV\u70df\u53f0
p460
aV\u626c\u5dde
p461
aV\u76d0\u57ce
p462
aV\u5b9c\u660c
p463
aV\u76ca\u9633
p464
aV\u4e49\u4e4c
p465
aV\u7389\u6eaa
p466
aV\u5b9c\u5bbe
p467
aV\u8fd0\u57ce
p468
aV\u5156\u5dde
p469
aV\u5ef6\u5b89
p470
aV\u6986\u6797
p471
aV\u8425\u53e3
p472
aV\u5ef6\u5409
p473
aV\u5b9c\u5174
p474
aV\u4f0a\u6625
p475
aV\u7389\u6797
p476
aV\u9633\u6c5f
p477
aV\u5b9c\u6625
p478
aV\u9e70\u6f6d
p479
aV\u6986\u6811
p480
aV\u96c5\u5b89
p481
aV\u4f59\u676d
p482
aV\u4eea\u5f81
p483
aV\u626c\u4e2d
p484
aV\u9633\u6cc9
p485
aV\u79b9\u5dde
p486
aV\u4e49\u9a6c
p487
aV\u6c38\u57ce
p488
aV\u4e91\u6d6e
p489
aV\u4f59\u59da
p490
aV\u6c38\u5eb7
p491
aV\u76d0\u7530
p492
aV\u682a\u6d32
p493
aV\u821f\u5c71
p494
aV\u6dc4\u535a
p495
aV\u90d1\u5dde
p496
aV\u73e0\u6d77
p497
aV\u4e2d\u5c71
p498
aV\u8087\u5e86
p499
aV\u6f33\u5dde
p500
aV\u5f20\u5bb6\u754c
p501
aV\u67a3\u5e84
p502
aV\u5f20\u5bb6\u6e2f
p503
aV\u6dbf\u5dde
p504
aV\u9075\u5316
p505
aV\u9075\u4e49
p506
aV\u6e5b\u6c5f
p507
aV\u9547\u6c5f
p508
aV\u589e\u57ce
p509
aV\u5468\u53e3
p510
aV\u9a7b\u9a6c\u5e97
p511
aV\u5e84\u6cb3
p512
aV\u81ea\u8d21
p513
aV\u5f20\u5bb6\u53e3
p514
aV\u5f20\u6396
p515
aV\u6a1f\u6811
p516
aV\u7ae0\u4e18
p517
aV\u8bf8\u57ce
p518
aV\u4e2d\u536b
p519
aV\u662d\u901a
p520
aV\u9547\u8fdc
p521
aV\u8bf8\u66a8
p522
a.